ARM GAS  C:\Users\JAKOBW~1\AppData\Local\Temp\ccrWMRev.s 			page 1


   1              		.syntax unified
   2              		.cpu cortex-m3
   3              		.fpu softvfp
   4              		.eabi_attribute 20, 1
   5              		.eabi_attribute 21, 1
   6              		.eabi_attribute 23, 3
   7              		.eabi_attribute 24, 1
   8              		.eabi_attribute 25, 1
   9              		.eabi_attribute 26, 1
  10              		.eabi_attribute 30, 6
  11              		.eabi_attribute 34, 1
  12              		.eabi_attribute 18, 4
  13              		.thumb
  14              		.file	"Filter_1_PVT.c"
  15              		.text
  16              	.Ltext0:
  17              		.cfi_sections	.debug_frame
  18              		.section	.text.Filter_1_SetInterruptMode,"ax",%progbits
  19              		.align	2
  20              		.global	Filter_1_SetInterruptMode
  21              		.thumb
  22              		.thumb_func
  23              		.type	Filter_1_SetInterruptMode, %function
  24              	Filter_1_SetInterruptMode:
  25              	.LFB0:
  26              		.file 1 ".\\Generated_Source\\PSoC5\\Filter_1_PVT.c"
   1:.\Generated_Source\PSoC5/Filter_1_PVT.c **** /*******************************************************************************
   2:.\Generated_Source\PSoC5/Filter_1_PVT.c **** * File Name: Filter_1_PVT.c
   3:.\Generated_Source\PSoC5/Filter_1_PVT.c **** * Version 2.20
   4:.\Generated_Source\PSoC5/Filter_1_PVT.c **** *
   5:.\Generated_Source\PSoC5/Filter_1_PVT.c **** * Description:
   6:.\Generated_Source\PSoC5/Filter_1_PVT.c **** *  This file provides source code for FILT component internal functions.
   7:.\Generated_Source\PSoC5/Filter_1_PVT.c **** *
   8:.\Generated_Source\PSoC5/Filter_1_PVT.c **** * Note:
   9:.\Generated_Source\PSoC5/Filter_1_PVT.c **** *  
  10:.\Generated_Source\PSoC5/Filter_1_PVT.c **** *******************************************************************************
  11:.\Generated_Source\PSoC5/Filter_1_PVT.c **** * Copyright 2008-2013, Cypress Semiconductor Corporation.  All rights reserved.
  12:.\Generated_Source\PSoC5/Filter_1_PVT.c **** * You may use this file only in accordance with the license, terms, conditions, 
  13:.\Generated_Source\PSoC5/Filter_1_PVT.c **** * disclaimers, and limitations in the end user license agreement accompanying 
  14:.\Generated_Source\PSoC5/Filter_1_PVT.c **** * the software package with which this file was provided.
  15:.\Generated_Source\PSoC5/Filter_1_PVT.c **** ********************************************************************************/
  16:.\Generated_Source\PSoC5/Filter_1_PVT.c **** 
  17:.\Generated_Source\PSoC5/Filter_1_PVT.c **** #include "Filter_1_PVT.h"
  18:.\Generated_Source\PSoC5/Filter_1_PVT.c **** 
  19:.\Generated_Source\PSoC5/Filter_1_PVT.c **** 
  20:.\Generated_Source\PSoC5/Filter_1_PVT.c **** /*******************************************************************************
  21:.\Generated_Source\PSoC5/Filter_1_PVT.c **** * Function Name: Filter_1_SetInterruptMode
  22:.\Generated_Source\PSoC5/Filter_1_PVT.c **** ********************************************************************************
  23:.\Generated_Source\PSoC5/Filter_1_PVT.c **** *
  24:.\Generated_Source\PSoC5/Filter_1_PVT.c **** * Summary:
  25:.\Generated_Source\PSoC5/Filter_1_PVT.c **** *  Assign the events which will trigger a DFB interrupt to be triggered. 
  26:.\Generated_Source\PSoC5/Filter_1_PVT.c **** *
  27:.\Generated_Source\PSoC5/Filter_1_PVT.c **** * Parameters:  
  28:.\Generated_Source\PSoC5/Filter_1_PVT.c **** *  events:  Bits [0:5] of events represent the events which will trigger DFB
  29:.\Generated_Source\PSoC5/Filter_1_PVT.c **** *           interrupts.
  30:.\Generated_Source\PSoC5/Filter_1_PVT.c **** *            Bit 0 - Output value ready in the holding register on channel A
  31:.\Generated_Source\PSoC5/Filter_1_PVT.c **** *            Bit 1 - Output value ready in the holding register on channel B
ARM GAS  C:\Users\JAKOBW~1\AppData\Local\Temp\ccrWMRev.s 			page 2


  32:.\Generated_Source\PSoC5/Filter_1_PVT.c **** *            Bit 2 - '1' written to Semaphore 0  - See Note
  33:.\Generated_Source\PSoC5/Filter_1_PVT.c **** *            Bit 3 - '1' written to Semaphore 1  - See Note
  34:.\Generated_Source\PSoC5/Filter_1_PVT.c **** *            Bit 4 - '1' written to Semaphore 2
  35:.\Generated_Source\PSoC5/Filter_1_PVT.c **** *
  36:.\Generated_Source\PSoC5/Filter_1_PVT.c **** * Return: 
  37:.\Generated_Source\PSoC5/Filter_1_PVT.c **** *  void
  38:.\Generated_Source\PSoC5/Filter_1_PVT.c **** *
  39:.\Generated_Source\PSoC5/Filter_1_PVT.c **** * Note:
  40:.\Generated_Source\PSoC5/Filter_1_PVT.c **** *  Semaphore 0 and Semaphore 1 should not be configured as both a DMA request 
  41:.\Generated_Source\PSoC5/Filter_1_PVT.c **** *  and an interrupt event, because, after one clock cycle, the system 
  42:.\Generated_Source\PSoC5/Filter_1_PVT.c **** *  automatically clears any semaphore which triggered a DMA request.
  43:.\Generated_Source\PSoC5/Filter_1_PVT.c **** *
  44:.\Generated_Source\PSoC5/Filter_1_PVT.c **** *******************************************************************************/
  45:.\Generated_Source\PSoC5/Filter_1_PVT.c **** void Filter_1_SetInterruptMode(uint8 events) 
  46:.\Generated_Source\PSoC5/Filter_1_PVT.c **** {
  27              		.loc 1 46 0
  28              		.cfi_startproc
  29              		@ args = 0, pretend = 0, frame = 8
  30              		@ frame_needed = 1, uses_anonymous_args = 0
  31              		@ link register save eliminated.
  32 0000 80B4     		push	{r7}
  33              		.cfi_def_cfa_offset 4
  34              		.cfi_offset 7, -4
  35 0002 83B0     		sub	sp, sp, #12
  36              		.cfi_def_cfa_offset 16
  37 0004 00AF     		add	r7, sp, #0
  38              		.cfi_def_cfa_register 7
  39 0006 0346     		mov	r3, r0
  40 0008 FB71     		strb	r3, [r7, #7]
  47:.\Generated_Source\PSoC5/Filter_1_PVT.c ****     events &= Filter_1_EVENT_MASK;
  41              		.loc 1 47 0
  42 000a FB79     		ldrb	r3, [r7, #7]
  43 000c 03F01F03 		and	r3, r3, #31
  44 0010 FB71     		strb	r3, [r7, #7]
  48:.\Generated_Source\PSoC5/Filter_1_PVT.c ****     Filter_1_INT_CTRL_REG = events;
  45              		.loc 1 48 0
  46 0012 044A     		ldr	r2, .L2
  47 0014 FB79     		ldrb	r3, [r7, #7]
  48 0016 1370     		strb	r3, [r2]
  49:.\Generated_Source\PSoC5/Filter_1_PVT.c **** }
  49              		.loc 1 49 0
  50 0018 0C37     		adds	r7, r7, #12
  51              		.cfi_def_cfa_offset 4
  52 001a BD46     		mov	sp, r7
  53              		.cfi_def_cfa_register 13
  54              		@ sp needed
  55 001c 5DF8047B 		ldr	r7, [sp], #4
  56              		.cfi_restore 7
  57              		.cfi_def_cfa_offset 0
  58 0020 7047     		bx	lr
  59              	.L3:
  60 0022 00BF     		.align	2
  61              	.L2:
  62 0024 98C70040 		.word	1073792920
  63              		.cfi_endproc
  64              	.LFE0:
  65              		.size	Filter_1_SetInterruptMode, .-Filter_1_SetInterruptMode
ARM GAS  C:\Users\JAKOBW~1\AppData\Local\Temp\ccrWMRev.s 			page 3


  66              		.section	.text.Filter_1_SetDMAMode,"ax",%progbits
  67              		.align	2
  68              		.global	Filter_1_SetDMAMode
  69              		.thumb
  70              		.thumb_func
  71              		.type	Filter_1_SetDMAMode, %function
  72              	Filter_1_SetDMAMode:
  73              	.LFB1:
  50:.\Generated_Source\PSoC5/Filter_1_PVT.c **** 
  51:.\Generated_Source\PSoC5/Filter_1_PVT.c **** 
  52:.\Generated_Source\PSoC5/Filter_1_PVT.c **** /*******************************************************************************
  53:.\Generated_Source\PSoC5/Filter_1_PVT.c **** * Function Name: Filter_1_SetDMAMode
  54:.\Generated_Source\PSoC5/Filter_1_PVT.c **** ********************************************************************************
  55:.\Generated_Source\PSoC5/Filter_1_PVT.c **** *
  56:.\Generated_Source\PSoC5/Filter_1_PVT.c **** * Summary:
  57:.\Generated_Source\PSoC5/Filter_1_PVT.c **** *  Assign the events which will trigger a DMA request for the DFB.  There are 
  58:.\Generated_Source\PSoC5/Filter_1_PVT.c **** *  two different DMA requests that can be triggered.
  59:.\Generated_Source\PSoC5/Filter_1_PVT.c **** *
  60:.\Generated_Source\PSoC5/Filter_1_PVT.c **** * Parameters:  
  61:.\Generated_Source\PSoC5/Filter_1_PVT.c **** *  events:  A set of 4 bits which configure what event, if any, triggers a DMA 
  62:.\Generated_Source\PSoC5/Filter_1_PVT.c **** *           request for the DFB.  
  63:.\Generated_Source\PSoC5/Filter_1_PVT.c **** *           Bits [0:1] configure the trigger for DMA Request 1
  64:.\Generated_Source\PSoC5/Filter_1_PVT.c **** *           Bits [2:3] configure the trigger for DMA Request 2
  65:.\Generated_Source\PSoC5/Filter_1_PVT.c **** *            DMA Request 1: 
  66:.\Generated_Source\PSoC5/Filter_1_PVT.c **** *               0 - no request will be generated
  67:.\Generated_Source\PSoC5/Filter_1_PVT.c **** *               1 - Output value ready in the holding register on channel A
  68:.\Generated_Source\PSoC5/Filter_1_PVT.c **** *               2 - Semaphore 0
  69:.\Generated_Source\PSoC5/Filter_1_PVT.c **** *               3 - Sempahore 1
  70:.\Generated_Source\PSoC5/Filter_1_PVT.c **** *            DMA Request 2: 
  71:.\Generated_Source\PSoC5/Filter_1_PVT.c **** *               0 - no request will be generated
  72:.\Generated_Source\PSoC5/Filter_1_PVT.c **** *               1 - Output value ready in the holding register on channel B
  73:.\Generated_Source\PSoC5/Filter_1_PVT.c **** *               2 - Semaphore 0
  74:.\Generated_Source\PSoC5/Filter_1_PVT.c **** *               3 - Sempahore 1
  75:.\Generated_Source\PSoC5/Filter_1_PVT.c **** *
  76:.\Generated_Source\PSoC5/Filter_1_PVT.c **** * Return: 
  77:.\Generated_Source\PSoC5/Filter_1_PVT.c **** *  void
  78:.\Generated_Source\PSoC5/Filter_1_PVT.c **** *
  79:.\Generated_Source\PSoC5/Filter_1_PVT.c **** * Note:
  80:.\Generated_Source\PSoC5/Filter_1_PVT.c **** *  Semaphore 0 and Semaphore 1 should not be configured as both a DMA request 
  81:.\Generated_Source\PSoC5/Filter_1_PVT.c **** *  and an interrupt event, because, after one clock cycle, the system 
  82:.\Generated_Source\PSoC5/Filter_1_PVT.c **** *  automatically clears any semaphore which triggered a DMA request.
  83:.\Generated_Source\PSoC5/Filter_1_PVT.c **** *
  84:.\Generated_Source\PSoC5/Filter_1_PVT.c **** *******************************************************************************/
  85:.\Generated_Source\PSoC5/Filter_1_PVT.c **** void Filter_1_SetDMAMode(uint8 events) 
  86:.\Generated_Source\PSoC5/Filter_1_PVT.c **** {
  74              		.loc 1 86 0
  75              		.cfi_startproc
  76              		@ args = 0, pretend = 0, frame = 8
  77              		@ frame_needed = 1, uses_anonymous_args = 0
  78              		@ link register save eliminated.
  79 0000 80B4     		push	{r7}
  80              		.cfi_def_cfa_offset 4
  81              		.cfi_offset 7, -4
  82 0002 83B0     		sub	sp, sp, #12
  83              		.cfi_def_cfa_offset 16
  84 0004 00AF     		add	r7, sp, #0
  85              		.cfi_def_cfa_register 7
ARM GAS  C:\Users\JAKOBW~1\AppData\Local\Temp\ccrWMRev.s 			page 4


  86 0006 0346     		mov	r3, r0
  87 0008 FB71     		strb	r3, [r7, #7]
  87:.\Generated_Source\PSoC5/Filter_1_PVT.c ****     events &= Filter_1_DMA_CTRL_MASK;
  88              		.loc 1 87 0
  89 000a FB79     		ldrb	r3, [r7, #7]
  90 000c 03F00F03 		and	r3, r3, #15
  91 0010 FB71     		strb	r3, [r7, #7]
  88:.\Generated_Source\PSoC5/Filter_1_PVT.c ****     Filter_1_DMA_CTRL_REG = events;
  92              		.loc 1 88 0
  93 0012 044A     		ldr	r2, .L5
  94 0014 FB79     		ldrb	r3, [r7, #7]
  95 0016 1370     		strb	r3, [r2]
  89:.\Generated_Source\PSoC5/Filter_1_PVT.c **** }
  96              		.loc 1 89 0
  97 0018 0C37     		adds	r7, r7, #12
  98              		.cfi_def_cfa_offset 4
  99 001a BD46     		mov	sp, r7
 100              		.cfi_def_cfa_register 13
 101              		@ sp needed
 102 001c 5DF8047B 		ldr	r7, [sp], #4
 103              		.cfi_restore 7
 104              		.cfi_def_cfa_offset 0
 105 0020 7047     		bx	lr
 106              	.L6:
 107 0022 00BF     		.align	2
 108              	.L5:
 109 0024 9CC70040 		.word	1073792924
 110              		.cfi_endproc
 111              	.LFE1:
 112              		.size	Filter_1_SetDMAMode, .-Filter_1_SetDMAMode
 113              		.text
 114              	.Letext0:
 115              		.file 2 ".\\Generated_Source\\PSoC5\\cytypes.h"