ARM GAS  C:\Users\JAKOBW~1\AppData\Local\Temp\ccKoY9Ha.s 			page 1


   1              		.syntax unified
   2              		.cpu cortex-m3
   3              		.fpu softvfp
   4              		.eabi_attribute 20, 1
   5              		.eabi_attribute 21, 1
   6              		.eabi_attribute 23, 3
   7              		.eabi_attribute 24, 1
   8              		.eabi_attribute 25, 1
   9              		.eabi_attribute 26, 1
  10              		.eabi_attribute 30, 6
  11              		.eabi_attribute 34, 1
  12              		.eabi_attribute 18, 4
  13              		.thumb
  14              		.file	"Filter_1_PM.c"
  15              		.text
  16              	.Ltext0:
  17              		.cfi_sections	.debug_frame
  18              		.data
  19              		.align	2
  20              		.type	Filter_1_backup, %object
  21              		.size	Filter_1_backup, 68
  22              	Filter_1_backup:
  23 0000 00       		.byte	0
  24 0001 01       		.byte	1
  25 0002 00000000 		.space	66
  25      00000000 
  25      00000000 
  25      00000000 
  25      00000000 
  26              		.section	.text.Filter_1_SaveConfig,"ax",%progbits
  27              		.align	2
  28              		.global	Filter_1_SaveConfig
  29              		.thumb
  30              		.thumb_func
  31              		.type	Filter_1_SaveConfig, %function
  32              	Filter_1_SaveConfig:
  33              	.LFB0:
  34              		.file 1 ".\\Generated_Source\\PSoC5\\Filter_1_PM.c"
   1:.\Generated_Source\PSoC5/Filter_1_PM.c **** /*******************************************************************************
   2:.\Generated_Source\PSoC5/Filter_1_PM.c **** * File Name: Filter_1_PM.c
   3:.\Generated_Source\PSoC5/Filter_1_PM.c **** * Version 2.20
   4:.\Generated_Source\PSoC5/Filter_1_PM.c **** *
   5:.\Generated_Source\PSoC5/Filter_1_PM.c **** * Description:
   6:.\Generated_Source\PSoC5/Filter_1_PM.c **** *  This file provides the power managaer API source code for the FILT component.
   7:.\Generated_Source\PSoC5/Filter_1_PM.c **** *
   8:.\Generated_Source\PSoC5/Filter_1_PM.c **** * Note:
   9:.\Generated_Source\PSoC5/Filter_1_PM.c **** *  
  10:.\Generated_Source\PSoC5/Filter_1_PM.c **** *******************************************************************************
  11:.\Generated_Source\PSoC5/Filter_1_PM.c **** * Copyright 2008-2013, Cypress Semiconductor Corporation.  All rights reserved.
  12:.\Generated_Source\PSoC5/Filter_1_PM.c **** * You may use this file only in accordance with the license, terms, conditions, 
  13:.\Generated_Source\PSoC5/Filter_1_PM.c **** * disclaimers, and limitations in the end user license agreement accompanying 
  14:.\Generated_Source\PSoC5/Filter_1_PM.c **** * the software package with which this file was provided.
  15:.\Generated_Source\PSoC5/Filter_1_PM.c **** ********************************************************************************/
  16:.\Generated_Source\PSoC5/Filter_1_PM.c **** 
  17:.\Generated_Source\PSoC5/Filter_1_PM.c **** #include "Filter_1_PVT.h"
  18:.\Generated_Source\PSoC5/Filter_1_PM.c **** 
  19:.\Generated_Source\PSoC5/Filter_1_PM.c **** static Filter_1_backupStruct  Filter_1_backup = 
ARM GAS  C:\Users\JAKOBW~1\AppData\Local\Temp\ccKoY9Ha.s 			page 2


  20:.\Generated_Source\PSoC5/Filter_1_PM.c **** {
  21:.\Generated_Source\PSoC5/Filter_1_PM.c ****     Filter_1_DISABLED,
  22:.\Generated_Source\PSoC5/Filter_1_PM.c ****     Filter_1_RUN_MASK,
  23:.\Generated_Source\PSoC5/Filter_1_PM.c ****     
  24:.\Generated_Source\PSoC5/Filter_1_PM.c **** };
  25:.\Generated_Source\PSoC5/Filter_1_PM.c **** 
  26:.\Generated_Source\PSoC5/Filter_1_PM.c **** 
  27:.\Generated_Source\PSoC5/Filter_1_PM.c **** /*******************************************************************************
  28:.\Generated_Source\PSoC5/Filter_1_PM.c **** * Function Name: Filter_1_SaveConfig
  29:.\Generated_Source\PSoC5/Filter_1_PM.c **** ********************************************************************************
  30:.\Generated_Source\PSoC5/Filter_1_PM.c **** *
  31:.\Generated_Source\PSoC5/Filter_1_PM.c **** * Summary:
  32:.\Generated_Source\PSoC5/Filter_1_PM.c **** *  Saves the current user configuration.
  33:.\Generated_Source\PSoC5/Filter_1_PM.c **** *  
  34:.\Generated_Source\PSoC5/Filter_1_PM.c **** * Parameters:  
  35:.\Generated_Source\PSoC5/Filter_1_PM.c **** *  void
  36:.\Generated_Source\PSoC5/Filter_1_PM.c **** *
  37:.\Generated_Source\PSoC5/Filter_1_PM.c **** * Return: 
  38:.\Generated_Source\PSoC5/Filter_1_PM.c **** *  void
  39:.\Generated_Source\PSoC5/Filter_1_PM.c **** *
  40:.\Generated_Source\PSoC5/Filter_1_PM.c **** * Global variables:
  41:.\Generated_Source\PSoC5/Filter_1_PM.c **** *  Filter_1_backup:  This global structure variable is used to store 
  42:.\Generated_Source\PSoC5/Filter_1_PM.c **** *  configuration registers which are non retention whenever user wants to go 
  43:.\Generated_Source\PSoC5/Filter_1_PM.c **** *  sleep mode by calling Sleep() API.
  44:.\Generated_Source\PSoC5/Filter_1_PM.c **** *
  45:.\Generated_Source\PSoC5/Filter_1_PM.c **** *******************************************************************************/
  46:.\Generated_Source\PSoC5/Filter_1_PM.c **** void Filter_1_SaveConfig(void) 
  47:.\Generated_Source\PSoC5/Filter_1_PM.c **** {
  35              		.loc 1 47 0
  36              		.cfi_startproc
  37              		@ args = 0, pretend = 0, frame = 0
  38              		@ frame_needed = 1, uses_anonymous_args = 0
  39              		@ link register save eliminated.
  40 0000 B0B4     		push	{r4, r5, r7}
  41              		.cfi_def_cfa_offset 12
  42              		.cfi_offset 4, -12
  43              		.cfi_offset 5, -8
  44              		.cfi_offset 7, -4
  45 0002 00AF     		add	r7, sp, #0
  46              		.cfi_def_cfa_register 7
  48:.\Generated_Source\PSoC5/Filter_1_PM.c ****     Filter_1_backup.cr = Filter_1_CR_REG;
  47              		.loc 1 48 0
  48 0004 124B     		ldr	r3, .L2
  49 0006 1B78     		ldrb	r3, [r3]
  50 0008 DAB2     		uxtb	r2, r3
  51 000a 124B     		ldr	r3, .L2+4
  52 000c 5A70     		strb	r2, [r3, #1]
  49:.\Generated_Source\PSoC5/Filter_1_PM.c ****     Filter_1_backup.sr = Filter_1_SR_REG;
  53              		.loc 1 49 0
  54 000e 124B     		ldr	r3, .L2+8
  55 0010 1B78     		ldrb	r3, [r3]
  56 0012 DAB2     		uxtb	r2, r3
  57 0014 0F4B     		ldr	r3, .L2+4
  58 0016 9A70     		strb	r2, [r3, #2]
  50:.\Generated_Source\PSoC5/Filter_1_PM.c ****     Filter_1_backup.sema = Filter_1_SEMA_REG;
  59              		.loc 1 50 0
  60 0018 104B     		ldr	r3, .L2+12
ARM GAS  C:\Users\JAKOBW~1\AppData\Local\Temp\ccKoY9Ha.s 			page 3


  61 001a 1B78     		ldrb	r3, [r3]
  62 001c DAB2     		uxtb	r2, r3
  63 001e 0D4B     		ldr	r3, .L2+4
  64 0020 DA70     		strb	r2, [r3, #3]
  51:.\Generated_Source\PSoC5/Filter_1_PM.c **** 
  52:.\Generated_Source\PSoC5/Filter_1_PM.c ****     /* Put DFB RAM on the bus */
  53:.\Generated_Source\PSoC5/Filter_1_PM.c ****     Filter_1_RAM_DIR_REG = Filter_1_RAM_DIR_BUS;
  65              		.loc 1 53 0
  66 0022 0F4B     		ldr	r3, .L2+16
  67 0024 3F22     		movs	r2, #63
  68 0026 1A70     		strb	r2, [r3]
  54:.\Generated_Source\PSoC5/Filter_1_PM.c **** 
  55:.\Generated_Source\PSoC5/Filter_1_PM.c ****     /* Save the ACU RAM as this is not retension */
  56:.\Generated_Source\PSoC5/Filter_1_PM.c ****     (void)memcpy(Filter_1_backup.saveAcu,
  69              		.loc 1 56 0
  70 0028 0A4B     		ldr	r3, .L2+4
  71 002a 0E4A     		ldr	r2, .L2+20
  72 002c 1C1D     		adds	r4, r3, #4
  73 002e 1546     		mov	r5, r2
  74 0030 0FCD     		ldmia	r5!, {r0, r1, r2, r3}
  75 0032 0FC4     		stmia	r4!, {r0, r1, r2, r3}
  76 0034 0FCD     		ldmia	r5!, {r0, r1, r2, r3}
  77 0036 0FC4     		stmia	r4!, {r0, r1, r2, r3}
  78 0038 0FCD     		ldmia	r5!, {r0, r1, r2, r3}
  79 003a 0FC4     		stmia	r4!, {r0, r1, r2, r3}
  80 003c 95E80F00 		ldmia	r5, {r0, r1, r2, r3}
  81 0040 84E80F00 		stmia	r4, {r0, r1, r2, r3}
  57:.\Generated_Source\PSoC5/Filter_1_PM.c ****         Filter_1_ACU_RAM, Filter_1_ACU_RAM_SIZE); 
  58:.\Generated_Source\PSoC5/Filter_1_PM.c **** 
  59:.\Generated_Source\PSoC5/Filter_1_PM.c ****     /* Take DFB RAM off the bus */
  60:.\Generated_Source\PSoC5/Filter_1_PM.c ****     Filter_1_RAM_DIR_REG = Filter_1_RAM_DIR_DFB;
  82              		.loc 1 60 0
  83 0044 064B     		ldr	r3, .L2+16
  84 0046 0022     		movs	r2, #0
  85 0048 1A70     		strb	r2, [r3]
  61:.\Generated_Source\PSoC5/Filter_1_PM.c **** }
  86              		.loc 1 61 0
  87 004a BD46     		mov	sp, r7
  88              		.cfi_def_cfa_register 13
  89              		@ sp needed
  90 004c B0BC     		pop	{r4, r5, r7}
  91              		.cfi_restore 7
  92              		.cfi_restore 5
  93              		.cfi_restore 4
  94              		.cfi_def_cfa_offset 0
  95 004e 7047     		bx	lr
  96              	.L3:
  97              		.align	2
  98              	.L2:
  99 0050 80C70040 		.word	1073792896
 100 0054 00000000 		.word	Filter_1_backup
 101 0058 84C70040 		.word	1073792900
 102 005c 90C70040 		.word	1073792912
 103 0060 8CC70040 		.word	1073792908
 104 0064 00C70040 		.word	1073792768
 105              		.cfi_endproc
 106              	.LFE0:
ARM GAS  C:\Users\JAKOBW~1\AppData\Local\Temp\ccKoY9Ha.s 			page 4


 107              		.size	Filter_1_SaveConfig, .-Filter_1_SaveConfig
 108              		.section	.text.Filter_1_RestoreConfig,"ax",%progbits
 109              		.align	2
 110              		.global	Filter_1_RestoreConfig
 111              		.thumb
 112              		.thumb_func
 113              		.type	Filter_1_RestoreConfig, %function
 114              	Filter_1_RestoreConfig:
 115              	.LFB1:
  62:.\Generated_Source\PSoC5/Filter_1_PM.c **** 
  63:.\Generated_Source\PSoC5/Filter_1_PM.c **** 
  64:.\Generated_Source\PSoC5/Filter_1_PM.c **** /*******************************************************************************
  65:.\Generated_Source\PSoC5/Filter_1_PM.c **** * Function Name: Filter_1_RestoreConfig
  66:.\Generated_Source\PSoC5/Filter_1_PM.c **** ********************************************************************************
  67:.\Generated_Source\PSoC5/Filter_1_PM.c **** *
  68:.\Generated_Source\PSoC5/Filter_1_PM.c **** * Summary:
  69:.\Generated_Source\PSoC5/Filter_1_PM.c **** *  Restores the current user configuration.
  70:.\Generated_Source\PSoC5/Filter_1_PM.c **** *
  71:.\Generated_Source\PSoC5/Filter_1_PM.c **** * Parameters:  
  72:.\Generated_Source\PSoC5/Filter_1_PM.c **** *  void
  73:.\Generated_Source\PSoC5/Filter_1_PM.c **** *
  74:.\Generated_Source\PSoC5/Filter_1_PM.c **** * Return: 
  75:.\Generated_Source\PSoC5/Filter_1_PM.c **** *  void
  76:.\Generated_Source\PSoC5/Filter_1_PM.c **** *
  77:.\Generated_Source\PSoC5/Filter_1_PM.c **** * Global variables:
  78:.\Generated_Source\PSoC5/Filter_1_PM.c **** *  Filter_1_backup:  This global structure variable is used to restore 
  79:.\Generated_Source\PSoC5/Filter_1_PM.c **** *  configuration registers which are non retention whenever user wants to switch 
  80:.\Generated_Source\PSoC5/Filter_1_PM.c **** *  to active power mode by calling Wakeup() API.
  81:.\Generated_Source\PSoC5/Filter_1_PM.c **** *
  82:.\Generated_Source\PSoC5/Filter_1_PM.c **** *******************************************************************************/
  83:.\Generated_Source\PSoC5/Filter_1_PM.c **** void Filter_1_RestoreConfig(void) 
  84:.\Generated_Source\PSoC5/Filter_1_PM.c **** {
 116              		.loc 1 84 0
 117              		.cfi_startproc
 118              		@ args = 0, pretend = 0, frame = 0
 119              		@ frame_needed = 1, uses_anonymous_args = 0
 120              		@ link register save eliminated.
 121 0000 B0B4     		push	{r4, r5, r7}
 122              		.cfi_def_cfa_offset 12
 123              		.cfi_offset 4, -12
 124              		.cfi_offset 5, -8
 125              		.cfi_offset 7, -4
 126 0002 00AF     		add	r7, sp, #0
 127              		.cfi_def_cfa_register 7
  85:.\Generated_Source\PSoC5/Filter_1_PM.c ****     Filter_1_CR_REG = Filter_1_backup.cr;
 128              		.loc 1 85 0
 129 0004 154B     		ldr	r3, .L5
 130 0006 164A     		ldr	r2, .L5+4
 131 0008 5278     		ldrb	r2, [r2, #1]	@ zero_extendqisi2
 132 000a 1A70     		strb	r2, [r3]
  86:.\Generated_Source\PSoC5/Filter_1_PM.c ****     Filter_1_SR_REG = Filter_1_backup.sr;
 133              		.loc 1 86 0
 134 000c 154B     		ldr	r3, .L5+8
 135 000e 144A     		ldr	r2, .L5+4
 136 0010 9278     		ldrb	r2, [r2, #2]	@ zero_extendqisi2
 137 0012 1A70     		strb	r2, [r3]
  87:.\Generated_Source\PSoC5/Filter_1_PM.c ****     Filter_1_SEMA_REG = Filter_1_backup.sema;
ARM GAS  C:\Users\JAKOBW~1\AppData\Local\Temp\ccKoY9Ha.s 			page 5


 138              		.loc 1 87 0
 139 0014 144B     		ldr	r3, .L5+12
 140 0016 124A     		ldr	r2, .L5+4
 141 0018 D278     		ldrb	r2, [r2, #3]	@ zero_extendqisi2
 142 001a 1A70     		strb	r2, [r3]
  88:.\Generated_Source\PSoC5/Filter_1_PM.c ****     
  89:.\Generated_Source\PSoC5/Filter_1_PM.c ****     /* Power on DFB before initializing the RAMs */
  90:.\Generated_Source\PSoC5/Filter_1_PM.c ****     Filter_1_PM_ACT_CFG_REG |= Filter_1_PM_ACT_MSK;
 143              		.loc 1 90 0
 144 001c 134A     		ldr	r2, .L5+16
 145 001e 134B     		ldr	r3, .L5+16
 146 0020 1B78     		ldrb	r3, [r3]
 147 0022 DBB2     		uxtb	r3, r3
 148 0024 43F01003 		orr	r3, r3, #16
 149 0028 DBB2     		uxtb	r3, r3
 150 002a 1370     		strb	r3, [r2]
  91:.\Generated_Source\PSoC5/Filter_1_PM.c **** 
  92:.\Generated_Source\PSoC5/Filter_1_PM.c ****     /* Put DFB RAM on the bus */
  93:.\Generated_Source\PSoC5/Filter_1_PM.c ****     Filter_1_RAM_DIR_REG = Filter_1_RAM_DIR_BUS;
 151              		.loc 1 93 0
 152 002c 104B     		ldr	r3, .L5+20
 153 002e 3F22     		movs	r2, #63
 154 0030 1A70     		strb	r2, [r3]
  94:.\Generated_Source\PSoC5/Filter_1_PM.c **** 
  95:.\Generated_Source\PSoC5/Filter_1_PM.c ****     /* Restore ACU RAM as this is not retension */
  96:.\Generated_Source\PSoC5/Filter_1_PM.c ****     (void)memcpy(Filter_1_ACU_RAM,
 155              		.loc 1 96 0
 156 0032 104A     		ldr	r2, .L5+24
 157 0034 0A4B     		ldr	r3, .L5+4
 158 0036 1546     		mov	r5, r2
 159 0038 1C1D     		adds	r4, r3, #4
 160 003a 0FCC     		ldmia	r4!, {r0, r1, r2, r3}
 161 003c 0FC5     		stmia	r5!, {r0, r1, r2, r3}
 162 003e 0FCC     		ldmia	r4!, {r0, r1, r2, r3}
 163 0040 0FC5     		stmia	r5!, {r0, r1, r2, r3}
 164 0042 0FCC     		ldmia	r4!, {r0, r1, r2, r3}
 165 0044 0FC5     		stmia	r5!, {r0, r1, r2, r3}
 166 0046 94E80F00 		ldmia	r4, {r0, r1, r2, r3}
 167 004a 85E80F00 		stmia	r5, {r0, r1, r2, r3}
  97:.\Generated_Source\PSoC5/Filter_1_PM.c ****         Filter_1_backup.saveAcu, Filter_1_ACU_RAM_SIZE); 
  98:.\Generated_Source\PSoC5/Filter_1_PM.c **** 
  99:.\Generated_Source\PSoC5/Filter_1_PM.c ****     /* Take DFB RAM off the bus */
 100:.\Generated_Source\PSoC5/Filter_1_PM.c ****     Filter_1_RAM_DIR_REG = Filter_1_RAM_DIR_DFB;
 168              		.loc 1 100 0
 169 004e 084B     		ldr	r3, .L5+20
 170 0050 0022     		movs	r2, #0
 171 0052 1A70     		strb	r2, [r3]
 101:.\Generated_Source\PSoC5/Filter_1_PM.c **** }
 172              		.loc 1 101 0
 173 0054 BD46     		mov	sp, r7
 174              		.cfi_def_cfa_register 13
 175              		@ sp needed
 176 0056 B0BC     		pop	{r4, r5, r7}
 177              		.cfi_restore 7
 178              		.cfi_restore 5
 179              		.cfi_restore 4
 180              		.cfi_def_cfa_offset 0
ARM GAS  C:\Users\JAKOBW~1\AppData\Local\Temp\ccKoY9Ha.s 			page 6


 181 0058 7047     		bx	lr
 182              	.L6:
 183 005a 00BF     		.align	2
 184              	.L5:
 185 005c 80C70040 		.word	1073792896
 186 0060 00000000 		.word	Filter_1_backup
 187 0064 84C70040 		.word	1073792900
 188 0068 90C70040 		.word	1073792912
 189 006c A6430040 		.word	1073759142
 190 0070 8CC70040 		.word	1073792908
 191 0074 00C70040 		.word	1073792768
 192              		.cfi_endproc
 193              	.LFE1:
 194              		.size	Filter_1_RestoreConfig, .-Filter_1_RestoreConfig
 195              		.section	.text.Filter_1_Sleep,"ax",%progbits
 196              		.align	2
 197              		.global	Filter_1_Sleep
 198              		.thumb
 199              		.thumb_func
 200              		.type	Filter_1_Sleep, %function
 201              	Filter_1_Sleep:
 202              	.LFB2:
 102:.\Generated_Source\PSoC5/Filter_1_PM.c **** 
 103:.\Generated_Source\PSoC5/Filter_1_PM.c **** 
 104:.\Generated_Source\PSoC5/Filter_1_PM.c **** /*******************************************************************************
 105:.\Generated_Source\PSoC5/Filter_1_PM.c **** * Function Name: Filter_1_Sleep
 106:.\Generated_Source\PSoC5/Filter_1_PM.c **** ********************************************************************************
 107:.\Generated_Source\PSoC5/Filter_1_PM.c **** *
 108:.\Generated_Source\PSoC5/Filter_1_PM.c **** * Summary:
 109:.\Generated_Source\PSoC5/Filter_1_PM.c **** *  Disables block's operation and saves its configuration. Should be called 
 110:.\Generated_Source\PSoC5/Filter_1_PM.c **** *  just prior to entering sleep.
 111:.\Generated_Source\PSoC5/Filter_1_PM.c **** *  
 112:.\Generated_Source\PSoC5/Filter_1_PM.c **** * Parameters:  
 113:.\Generated_Source\PSoC5/Filter_1_PM.c **** *  void
 114:.\Generated_Source\PSoC5/Filter_1_PM.c **** *
 115:.\Generated_Source\PSoC5/Filter_1_PM.c **** * Return: 
 116:.\Generated_Source\PSoC5/Filter_1_PM.c **** *  void
 117:.\Generated_Source\PSoC5/Filter_1_PM.c **** *
 118:.\Generated_Source\PSoC5/Filter_1_PM.c **** * Global variables:
 119:.\Generated_Source\PSoC5/Filter_1_PM.c **** *  Filter_1_backup:  The structure field 'enableState' is modified 
 120:.\Generated_Source\PSoC5/Filter_1_PM.c **** *  depending on the enable state of the block before entering to sleep mode.
 121:.\Generated_Source\PSoC5/Filter_1_PM.c **** *
 122:.\Generated_Source\PSoC5/Filter_1_PM.c **** *******************************************************************************/
 123:.\Generated_Source\PSoC5/Filter_1_PM.c **** void Filter_1_Sleep(void) 
 124:.\Generated_Source\PSoC5/Filter_1_PM.c **** {
 203              		.loc 1 124 0
 204              		.cfi_startproc
 205              		@ args = 0, pretend = 0, frame = 0
 206              		@ frame_needed = 1, uses_anonymous_args = 0
 207 0000 80B5     		push	{r7, lr}
 208              		.cfi_def_cfa_offset 8
 209              		.cfi_offset 7, -8
 210              		.cfi_offset 14, -4
 211 0002 00AF     		add	r7, sp, #0
 212              		.cfi_def_cfa_register 7
 125:.\Generated_Source\PSoC5/Filter_1_PM.c ****     /* Save Filter enable state */
 126:.\Generated_Source\PSoC5/Filter_1_PM.c ****     if(Filter_1_PM_ACT_MSK == (Filter_1_PM_ACT_CFG_REG & Filter_1_PM_ACT_MSK))
ARM GAS  C:\Users\JAKOBW~1\AppData\Local\Temp\ccKoY9Ha.s 			page 7


 213              		.loc 1 126 0
 214 0004 094B     		ldr	r3, .L10
 215 0006 1B78     		ldrb	r3, [r3]
 216 0008 DBB2     		uxtb	r3, r3
 217 000a 03F01003 		and	r3, r3, #16
 218 000e 002B     		cmp	r3, #0
 219 0010 03D0     		beq	.L8
 127:.\Generated_Source\PSoC5/Filter_1_PM.c ****     {
 128:.\Generated_Source\PSoC5/Filter_1_PM.c ****         /* Component is enabled */
 129:.\Generated_Source\PSoC5/Filter_1_PM.c ****         Filter_1_backup.enableState = Filter_1_ENABLED;
 220              		.loc 1 129 0
 221 0012 074B     		ldr	r3, .L10+4
 222 0014 0122     		movs	r2, #1
 223 0016 1A70     		strb	r2, [r3]
 224 0018 02E0     		b	.L9
 225              	.L8:
 130:.\Generated_Source\PSoC5/Filter_1_PM.c ****     }
 131:.\Generated_Source\PSoC5/Filter_1_PM.c ****     else
 132:.\Generated_Source\PSoC5/Filter_1_PM.c ****     {
 133:.\Generated_Source\PSoC5/Filter_1_PM.c ****         /* Component is disabled */
 134:.\Generated_Source\PSoC5/Filter_1_PM.c ****         Filter_1_backup.enableState = Filter_1_DISABLED;
 226              		.loc 1 134 0
 227 001a 054B     		ldr	r3, .L10+4
 228 001c 0022     		movs	r2, #0
 229 001e 1A70     		strb	r2, [r3]
 230              	.L9:
 135:.\Generated_Source\PSoC5/Filter_1_PM.c ****     }
 136:.\Generated_Source\PSoC5/Filter_1_PM.c **** 
 137:.\Generated_Source\PSoC5/Filter_1_PM.c ****     /* Save the configuration */
 138:.\Generated_Source\PSoC5/Filter_1_PM.c ****     Filter_1_SaveConfig();
 231              		.loc 1 138 0
 232 0020 FFF7FEFF 		bl	Filter_1_SaveConfig
 139:.\Generated_Source\PSoC5/Filter_1_PM.c ****     
 140:.\Generated_Source\PSoC5/Filter_1_PM.c ****     /* Stop the component */
 141:.\Generated_Source\PSoC5/Filter_1_PM.c ****     Filter_1_Stop();
 233              		.loc 1 141 0
 234 0024 FFF7FEFF 		bl	Filter_1_Stop
 142:.\Generated_Source\PSoC5/Filter_1_PM.c **** }
 235              		.loc 1 142 0
 236 0028 80BD     		pop	{r7, pc}
 237              	.L11:
 238 002a 00BF     		.align	2
 239              	.L10:
 240 002c A6430040 		.word	1073759142
 241 0030 00000000 		.word	Filter_1_backup
 242              		.cfi_endproc
 243              	.LFE2:
 244              		.size	Filter_1_Sleep, .-Filter_1_Sleep
 245              		.section	.text.Filter_1_Wakeup,"ax",%progbits
 246              		.align	2
 247              		.global	Filter_1_Wakeup
 248              		.thumb
 249              		.thumb_func
 250              		.type	Filter_1_Wakeup, %function
 251              	Filter_1_Wakeup:
 252              	.LFB3:
 143:.\Generated_Source\PSoC5/Filter_1_PM.c **** 
ARM GAS  C:\Users\JAKOBW~1\AppData\Local\Temp\ccKoY9Ha.s 			page 8


 144:.\Generated_Source\PSoC5/Filter_1_PM.c **** 
 145:.\Generated_Source\PSoC5/Filter_1_PM.c **** /*******************************************************************************
 146:.\Generated_Source\PSoC5/Filter_1_PM.c **** * Function Name: Filter_1_Wakeup
 147:.\Generated_Source\PSoC5/Filter_1_PM.c **** ********************************************************************************
 148:.\Generated_Source\PSoC5/Filter_1_PM.c **** *
 149:.\Generated_Source\PSoC5/Filter_1_PM.c **** * Summary:
 150:.\Generated_Source\PSoC5/Filter_1_PM.c **** *  Enables block's operation and restores its configuration. Should be called
 151:.\Generated_Source\PSoC5/Filter_1_PM.c **** *  just after awaking from sleep.
 152:.\Generated_Source\PSoC5/Filter_1_PM.c **** *  
 153:.\Generated_Source\PSoC5/Filter_1_PM.c **** * Parameters:  
 154:.\Generated_Source\PSoC5/Filter_1_PM.c **** *  void
 155:.\Generated_Source\PSoC5/Filter_1_PM.c **** *
 156:.\Generated_Source\PSoC5/Filter_1_PM.c **** * Return: 
 157:.\Generated_Source\PSoC5/Filter_1_PM.c **** *  void
 158:.\Generated_Source\PSoC5/Filter_1_PM.c **** *
 159:.\Generated_Source\PSoC5/Filter_1_PM.c **** * Global variables:
 160:.\Generated_Source\PSoC5/Filter_1_PM.c **** *  Filter_1_backup:  The structure field 'enableState' is used to 
 161:.\Generated_Source\PSoC5/Filter_1_PM.c **** *  restore the enable state of block after wakeup from sleep mode.
 162:.\Generated_Source\PSoC5/Filter_1_PM.c **** *
 163:.\Generated_Source\PSoC5/Filter_1_PM.c **** *******************************************************************************/
 164:.\Generated_Source\PSoC5/Filter_1_PM.c **** void Filter_1_Wakeup(void) 
 165:.\Generated_Source\PSoC5/Filter_1_PM.c **** {
 253              		.loc 1 165 0
 254              		.cfi_startproc
 255              		@ args = 0, pretend = 0, frame = 0
 256              		@ frame_needed = 1, uses_anonymous_args = 0
 257 0000 80B5     		push	{r7, lr}
 258              		.cfi_def_cfa_offset 8
 259              		.cfi_offset 7, -8
 260              		.cfi_offset 14, -4
 261 0002 00AF     		add	r7, sp, #0
 262              		.cfi_def_cfa_register 7
 166:.\Generated_Source\PSoC5/Filter_1_PM.c ****     /* Restore the configuration */
 167:.\Generated_Source\PSoC5/Filter_1_PM.c ****     Filter_1_RestoreConfig();
 263              		.loc 1 167 0
 264 0004 FFF7FEFF 		bl	Filter_1_RestoreConfig
 168:.\Generated_Source\PSoC5/Filter_1_PM.c ****     
 169:.\Generated_Source\PSoC5/Filter_1_PM.c ****     /* Enable's the component operation */
 170:.\Generated_Source\PSoC5/Filter_1_PM.c ****     if(Filter_1_backup.enableState == Filter_1_ENABLED)
 265              		.loc 1 170 0
 266 0008 034B     		ldr	r3, .L14
 267 000a 1B78     		ldrb	r3, [r3]	@ zero_extendqisi2
 268 000c 012B     		cmp	r3, #1
 269 000e 01D1     		bne	.L12
 171:.\Generated_Source\PSoC5/Filter_1_PM.c ****     {
 172:.\Generated_Source\PSoC5/Filter_1_PM.c ****         Filter_1_Enable();
 270              		.loc 1 172 0
 271 0010 FFF7FEFF 		bl	Filter_1_Enable
 272              	.L12:
 173:.\Generated_Source\PSoC5/Filter_1_PM.c ****     } /* Do nothing if component was disable before */
 174:.\Generated_Source\PSoC5/Filter_1_PM.c **** }
 273              		.loc 1 174 0
 274 0014 80BD     		pop	{r7, pc}
 275              	.L15:
 276 0016 00BF     		.align	2
 277              	.L14:
 278 0018 00000000 		.word	Filter_1_backup
ARM GAS  C:\Users\JAKOBW~1\AppData\Local\Temp\ccKoY9Ha.s 			page 9


 279              		.cfi_endproc
 280              	.LFE3:
 281              		.size	Filter_1_Wakeup, .-Filter_1_Wakeup
 282              		.text
 283              	.Letext0:
 284              		.file 2 ".\\Generated_Source\\PSoC5\\cytypes.h"
 285              		.file 3 ".\\Generated_Source\\PSoC5\\Filter_1.H"