ARM GAS  C:\Users\JAKOBW~1\AppData\Local\Temp\ccAY4Is0.s 			page 1


   1              		.syntax unified
   2              		.cpu cortex-m3
   3              		.fpu softvfp
   4              		.eabi_attribute 20, 1
   5              		.eabi_attribute 21, 1
   6              		.eabi_attribute 23, 3
   7              		.eabi_attribute 24, 1
   8              		.eabi_attribute 25, 1
   9              		.eabi_attribute 26, 1
  10              		.eabi_attribute 30, 6
  11              		.eabi_attribute 34, 1
  12              		.eabi_attribute 18, 4
  13              		.thumb
  14              		.file	"main.c"
  15              		.text
  16              	.Ltext0:
  17              		.cfi_sections	.debug_frame
  18              		.comm	V_Sample,2,4
  19              		.global	V_Sample_SUM_1
  20              		.bss
  21              		.align	2
  22              		.type	V_Sample_SUM_1, %object
  23              		.size	V_Sample_SUM_1, 4
  24              	V_Sample_SUM_1:
  25 0000 00000000 		.space	4
  26              		.global	V_Sample_SUM_2
  27              		.align	2
  28              		.type	V_Sample_SUM_2, %object
  29              		.size	V_Sample_SUM_2, 4
  30              	V_Sample_SUM_2:
  31 0004 00000000 		.space	4
  32              		.global	V_Sample_MIN
  33              		.align	1
  34              		.type	V_Sample_MIN, %object
  35              		.size	V_Sample_MIN, 2
  36              	V_Sample_MIN:
  37 0008 0000     		.space	2
  38              		.global	V_Sample_MAX
  39              		.align	1
  40              		.type	V_Sample_MAX, %object
  41              		.size	V_Sample_MAX, 2
  42              	V_Sample_MAX:
  43 000a 0000     		.space	2
  44              		.global	V_Sample_AVG
  45              		.align	1
  46              		.type	V_Sample_AVG, %object
  47              		.size	V_Sample_AVG, 2
  48              	V_Sample_AVG:
  49 000c 0000     		.space	2
  50              		.global	V_Sample_VAR
  51 000e 0000     		.align	2
  52              		.type	V_Sample_VAR, %object
  53              		.size	V_Sample_VAR, 4
  54              	V_Sample_VAR:
  55 0010 00000000 		.space	4
  56              		.global	V_Sample_AVG_float
  57              		.align	2
ARM GAS  C:\Users\JAKOBW~1\AppData\Local\Temp\ccAY4Is0.s 			page 2


  58              		.type	V_Sample_AVG_float, %object
  59              		.size	V_Sample_AVG_float, 4
  60              	V_Sample_AVG_float:
  61 0014 00000000 		.space	4
  62              		.global	V_Sample_PP_float
  63              		.align	2
  64              		.type	V_Sample_PP_float, %object
  65              		.size	V_Sample_PP_float, 4
  66              	V_Sample_PP_float:
  67 0018 00000000 		.space	4
  68              		.global	V_Sample_RMS_float
  69              		.align	2
  70              		.type	V_Sample_RMS_float, %object
  71              		.size	V_Sample_RMS_float, 4
  72              	V_Sample_RMS_float:
  73 001c 00000000 		.space	4
  74              		.global	i
  75              		.align	1
  76              		.type	i, %object
  77              		.size	i, 2
  78              	i:
  79 0020 0000     		.space	2
  80 0022 0000     		.section	.text.DMA_1_Config,"ax",%progbits
  81              		.align	2
  82              		.global	DMA_1_Config
  83              		.thumb
  84              		.thumb_func
  85              		.type	DMA_1_Config, %function
  86              	DMA_1_Config:
  87              	.LFB63:
  88              		.file 1 ".\\main.c"
   1:.\main.c      **** /* ========================================
   2:.\main.c      ****  *
   3:.\main.c      ****  * Copyright YOUR COMPANY, THE YEAR
   4:.\main.c      ****  * All Rights Reserved
   5:.\main.c      ****  * UNPUBLISHED, LICENSED SOFTWARE.
   6:.\main.c      ****  *
   7:.\main.c      ****  * CONFIDENTIAL AND PROPRIETARY INFORMATION
   8:.\main.c      ****  * WHICH IS THE PROPERTY OF your company.
   9:.\main.c      ****  *
  10:.\main.c      ****  * ========================================
  11:.\main.c      **** */
  12:.\main.c      **** #include <project.h>
  13:.\main.c      **** #include <math.h>
  14:.\main.c      **** 
  15:.\main.c      **** #define n 1
  16:.\main.c      **** #define N_Sample 10
  17:.\main.c      **** 
  18:.\main.c      **** int16 	V_Sample[n];
  19:.\main.c      **** int32 	V_Sample_SUM_1=0;
  20:.\main.c      **** float 	V_Sample_SUM_2=0;
  21:.\main.c      **** int16 	V_Sample_MIN=0;
  22:.\main.c      **** int16 	V_Sample_MAX=0;
  23:.\main.c      **** int16 	V_Sample_AVG=0;
  24:.\main.c      **** float 	V_Sample_VAR=0;
  25:.\main.c      **** float 	V_Sample_AVG_float=0;
  26:.\main.c      **** float 	V_Sample_PP_float=0;
ARM GAS  C:\Users\JAKOBW~1\AppData\Local\Temp\ccAY4Is0.s 			page 3


  27:.\main.c      **** float 	V_Sample_RMS_float=0;
  28:.\main.c      **** uint16 	i=0;
  29:.\main.c      **** 
  30:.\main.c      **** void DMA_1_Config()
  31:.\main.c      **** {
  89              		.loc 1 31 0
  90              		.cfi_startproc
  91              		@ args = 0, pretend = 0, frame = 8
  92              		@ frame_needed = 1, uses_anonymous_args = 0
  93 0000 80B5     		push	{r7, lr}
  94              		.cfi_def_cfa_offset 8
  95              		.cfi_offset 7, -8
  96              		.cfi_offset 14, -4
  97 0002 82B0     		sub	sp, sp, #8
  98              		.cfi_def_cfa_offset 16
  99 0004 00AF     		add	r7, sp, #0
 100              		.cfi_def_cfa_register 7
  32:.\main.c      **** 	/* Variable declarations for DMA_1 */
  33:.\main.c      **** 	/* Move these variable declarations to the top of the function */
  34:.\main.c      **** 	uint8 DMA_1_Chan;
  35:.\main.c      **** 	uint8 DMA_1_TD[1];
  36:.\main.c      **** 
  37:.\main.c      **** 	/* DMA Configuration for DMA_1 */
  38:.\main.c      **** 	#define DMA_1_BYTES_PER_BURST 2
  39:.\main.c      **** 	#define DMA_1_REQUEST_PER_BURST 1
  40:.\main.c      **** 	#define DMA_1_SRC_BASE (CYDEV_PERIPH_BASE)
  41:.\main.c      **** 	#define DMA_1_DST_BASE (CYDEV_PERIPH_BASE)
  42:.\main.c      **** 	DMA_1_Chan = DMA_1_DmaInitialize(DMA_1_BYTES_PER_BURST, DMA_1_REQUEST_PER_BURST, 
 101              		.loc 1 42 0
 102 0006 0220     		movs	r0, #2
 103 0008 0121     		movs	r1, #1
 104 000a 4FF48042 		mov	r2, #16384
 105 000e 4FF48043 		mov	r3, #16384
 106 0012 FFF7FEFF 		bl	DMA_1_DmaInitialize
 107 0016 0346     		mov	r3, r0
 108 0018 FB71     		strb	r3, [r7, #7]
  43:.\main.c      **** 	    HI16(DMA_1_SRC_BASE), HI16(DMA_1_DST_BASE));
  44:.\main.c      **** 	DMA_1_TD[0] = CyDmaTdAllocate();
 109              		.loc 1 44 0
 110 001a FFF7FEFF 		bl	CyDmaTdAllocate
 111 001e 0346     		mov	r3, r0
 112 0020 3B71     		strb	r3, [r7, #4]
  45:.\main.c      **** 	CyDmaTdSetConfiguration(DMA_1_TD[0], 2, DMA_INVALID_TD, TD_INC_DST_ADR);
 113              		.loc 1 45 0
 114 0022 3B79     		ldrb	r3, [r7, #4]	@ zero_extendqisi2
 115 0024 1846     		mov	r0, r3
 116 0026 0221     		movs	r1, #2
 117 0028 FF22     		movs	r2, #255
 118 002a 0223     		movs	r3, #2
 119 002c FFF7FEFF 		bl	CyDmaTdSetConfiguration
  46:.\main.c      **** 	CyDmaTdSetAddress(DMA_1_TD[0], LO16((uint32)ADC_DelSig_1_DEC_SAMP_PTR), LO16((uint32)Filter_1_STAG
 120              		.loc 1 46 0
 121 0030 3B79     		ldrb	r3, [r7, #4]	@ zero_extendqisi2
 122 0032 1846     		mov	r0, r3
 123 0034 44F61061 		movw	r1, #19984
 124 0038 4CF2A172 		movw	r2, #51105
 125 003c FFF7FEFF 		bl	CyDmaTdSetAddress
ARM GAS  C:\Users\JAKOBW~1\AppData\Local\Temp\ccAY4Is0.s 			page 4


  47:.\main.c      **** 	CyDmaChSetInitialTd(DMA_1_Chan, DMA_1_TD[0]);
 126              		.loc 1 47 0
 127 0040 3B79     		ldrb	r3, [r7, #4]	@ zero_extendqisi2
 128 0042 FA79     		ldrb	r2, [r7, #7]	@ zero_extendqisi2
 129 0044 1046     		mov	r0, r2
 130 0046 1946     		mov	r1, r3
 131 0048 FFF7FEFF 		bl	CyDmaChSetInitialTd
  48:.\main.c      **** 	CyDmaChEnable(DMA_1_Chan, 1);
 132              		.loc 1 48 0
 133 004c FB79     		ldrb	r3, [r7, #7]	@ zero_extendqisi2
 134 004e 1846     		mov	r0, r3
 135 0050 0121     		movs	r1, #1
 136 0052 FFF7FEFF 		bl	CyDmaChEnable
  49:.\main.c      **** }
 137              		.loc 1 49 0
 138 0056 0837     		adds	r7, r7, #8
 139              		.cfi_def_cfa_offset 8
 140 0058 BD46     		mov	sp, r7
 141              		.cfi_def_cfa_register 13
 142              		@ sp needed
 143 005a 80BD     		pop	{r7, pc}
 144              		.cfi_endproc
 145              	.LFE63:
 146              		.size	DMA_1_Config, .-DMA_1_Config
 147              		.section	.text.DMA_2_Config,"ax",%progbits
 148              		.align	2
 149              		.global	DMA_2_Config
 150              		.thumb
 151              		.thumb_func
 152              		.type	DMA_2_Config, %function
 153              	DMA_2_Config:
 154              	.LFB64:
  50:.\main.c      **** 
  51:.\main.c      **** void DMA_2_Config()
  52:.\main.c      **** {
 155              		.loc 1 52 0
 156              		.cfi_startproc
 157              		@ args = 0, pretend = 0, frame = 8
 158              		@ frame_needed = 1, uses_anonymous_args = 0
 159 0000 80B5     		push	{r7, lr}
 160              		.cfi_def_cfa_offset 8
 161              		.cfi_offset 7, -8
 162              		.cfi_offset 14, -4
 163 0002 82B0     		sub	sp, sp, #8
 164              		.cfi_def_cfa_offset 16
 165 0004 00AF     		add	r7, sp, #0
 166              		.cfi_def_cfa_register 7
  53:.\main.c      **** /* Variable declarations for DMA_2 */
  54:.\main.c      **** /* Move these variable declarations to the top of the function */
  55:.\main.c      **** uint8 DMA_2_Chan;
  56:.\main.c      **** uint8 DMA_2_TD[1];
  57:.\main.c      **** 
  58:.\main.c      **** /* DMA Configuration for DMA_2 */
  59:.\main.c      **** #define DMA_2_BYTES_PER_BURST 2
  60:.\main.c      **** #define DMA_2_REQUEST_PER_BURST 1
  61:.\main.c      **** #define DMA_2_SRC_BASE (CYDEV_PERIPH_BASE)
  62:.\main.c      **** #define DMA_2_DST_BASE (CYDEV_SRAM_BASE)
ARM GAS  C:\Users\JAKOBW~1\AppData\Local\Temp\ccAY4Is0.s 			page 5


  63:.\main.c      **** DMA_2_Chan = DMA_2_DmaInitialize(DMA_2_BYTES_PER_BURST, DMA_2_REQUEST_PER_BURST, 
 167              		.loc 1 63 0
 168 0006 0220     		movs	r0, #2
 169 0008 0121     		movs	r1, #1
 170 000a 4FF48042 		mov	r2, #16384
 171 000e 41F6FF73 		movw	r3, #8191
 172 0012 FFF7FEFF 		bl	DMA_2_DmaInitialize
 173 0016 0346     		mov	r3, r0
 174 0018 FB71     		strb	r3, [r7, #7]
  64:.\main.c      ****     HI16(DMA_2_SRC_BASE), HI16(DMA_2_DST_BASE));
  65:.\main.c      **** DMA_2_TD[0] = CyDmaTdAllocate();
 175              		.loc 1 65 0
 176 001a FFF7FEFF 		bl	CyDmaTdAllocate
 177 001e 0346     		mov	r3, r0
 178 0020 3B71     		strb	r3, [r7, #4]
  66:.\main.c      **** CyDmaTdSetConfiguration(DMA_2_TD[0], 2, DMA_INVALID_TD,  DMA_2__TD_TERMOUT_EN | TD_INC_SRC_ADR );
 179              		.loc 1 66 0
 180 0022 3B79     		ldrb	r3, [r7, #4]	@ zero_extendqisi2
 181 0024 1846     		mov	r0, r3
 182 0026 0221     		movs	r1, #2
 183 0028 FF22     		movs	r2, #255
 184 002a 0523     		movs	r3, #5
 185 002c FFF7FEFF 		bl	CyDmaTdSetConfiguration
  67:.\main.c      **** CyDmaTdSetAddress(DMA_2_TD[0], LO16((uint32)Filter_1_HOLDAM_PTR), LO16((uint32)V_Sample));
 186              		.loc 1 67 0
 187 0030 3A79     		ldrb	r2, [r7, #4]	@ zero_extendqisi2
 188 0032 0B4B     		ldr	r3, .L3
 189 0034 9BB2     		uxth	r3, r3
 190 0036 1046     		mov	r0, r2
 191 0038 4CF2A971 		movw	r1, #51113
 192 003c 1A46     		mov	r2, r3
 193 003e FFF7FEFF 		bl	CyDmaTdSetAddress
  68:.\main.c      **** CyDmaChSetInitialTd(DMA_2_Chan, DMA_2_TD[0]);
 194              		.loc 1 68 0
 195 0042 3B79     		ldrb	r3, [r7, #4]	@ zero_extendqisi2
 196 0044 FA79     		ldrb	r2, [r7, #7]	@ zero_extendqisi2
 197 0046 1046     		mov	r0, r2
 198 0048 1946     		mov	r1, r3
 199 004a FFF7FEFF 		bl	CyDmaChSetInitialTd
  69:.\main.c      **** CyDmaChEnable(DMA_2_Chan, 1);
 200              		.loc 1 69 0
 201 004e FB79     		ldrb	r3, [r7, #7]	@ zero_extendqisi2
 202 0050 1846     		mov	r0, r3
 203 0052 0121     		movs	r1, #1
 204 0054 FFF7FEFF 		bl	CyDmaChEnable
  70:.\main.c      **** 
  71:.\main.c      **** }
 205              		.loc 1 71 0
 206 0058 0837     		adds	r7, r7, #8
 207              		.cfi_def_cfa_offset 8
 208 005a BD46     		mov	sp, r7
 209              		.cfi_def_cfa_register 13
 210              		@ sp needed
 211 005c 80BD     		pop	{r7, pc}
 212              	.L4:
 213 005e 00BF     		.align	2
 214              	.L3:
ARM GAS  C:\Users\JAKOBW~1\AppData\Local\Temp\ccAY4Is0.s 			page 6


 215 0060 00000000 		.word	V_Sample
 216              		.cfi_endproc
 217              	.LFE64:
 218              		.size	DMA_2_Config, .-DMA_2_Config
 219              		.section	.text.DAC_int,"ax",%progbits
 220              		.align	2
 221              		.global	DAC_int
 222              		.thumb
 223              		.thumb_func
 224              		.type	DAC_int, %function
 225              	DAC_int:
 226              	.LFB65:
  72:.\main.c      **** 
  73:.\main.c      **** CY_ISR(DAC_int)
  74:.\main.c      **** {
 227              		.loc 1 74 0
 228              		.cfi_startproc
 229              		@ args = 0, pretend = 0, frame = 0
 230              		@ frame_needed = 1, uses_anonymous_args = 0
 231 0000 80B5     		push	{r7, lr}
 232              		.cfi_def_cfa_offset 8
 233              		.cfi_offset 7, -8
 234              		.cfi_offset 14, -4
 235 0002 00AF     		add	r7, sp, #0
 236              		.cfi_def_cfa_register 7
  75:.\main.c      **** 	test_01_Write(1);
 237              		.loc 1 75 0
 238 0004 0120     		movs	r0, #1
 239 0006 FFF7FEFF 		bl	test_01_Write
  76:.\main.c      **** 	VDAC8_1_Data = ((int8)(V_Sample[0] >> 8))+156;
 240              		.loc 1 76 0
 241 000a 074A     		ldr	r2, .L6
 242 000c 074B     		ldr	r3, .L6+4
 243 000e 1B88     		ldrh	r3, [r3]
 244 0010 1BB2     		sxth	r3, r3
 245 0012 1B12     		asrs	r3, r3, #8
 246 0014 9BB2     		uxth	r3, r3
 247 0016 DBB2     		uxtb	r3, r3
 248 0018 643B     		subs	r3, r3, #100
 249 001a DBB2     		uxtb	r3, r3
 250 001c 1370     		strb	r3, [r2]
  77:.\main.c      **** 	test_01_Write(0);
 251              		.loc 1 77 0
 252 001e 0020     		movs	r0, #0
 253 0020 FFF7FEFF 		bl	test_01_Write
  78:.\main.c      **** }
 254              		.loc 1 78 0
 255 0024 80BD     		pop	{r7, pc}
 256              	.L7:
 257 0026 00BF     		.align	2
 258              	.L6:
 259 0028 835B0040 		.word	1073765251
 260 002c 00000000 		.word	V_Sample
 261              		.cfi_endproc
 262              	.LFE65:
 263              		.size	DAC_int, .-DAC_int
 264              		.global	__aeabi_i2f
ARM GAS  C:\Users\JAKOBW~1\AppData\Local\Temp\ccAY4Is0.s 			page 7


 265              		.global	__aeabi_fmul
 266              		.global	__aeabi_fadd
 267              		.section	.text.Sample_int,"ax",%progbits
 268              		.align	2
 269              		.global	Sample_int
 270              		.thumb
 271              		.thumb_func
 272              		.type	Sample_int, %function
 273              	Sample_int:
 274              	.LFB66:
  79:.\main.c      **** 
  80:.\main.c      **** CY_ISR(Sample_int)
  81:.\main.c      **** {
 275              		.loc 1 81 0
 276              		.cfi_startproc
 277              		@ args = 0, pretend = 0, frame = 0
 278              		@ frame_needed = 1, uses_anonymous_args = 0
 279 0000 98B5     		push	{r3, r4, r7, lr}
 280              		.cfi_def_cfa_offset 16
 281              		.cfi_offset 3, -16
 282              		.cfi_offset 4, -12
 283              		.cfi_offset 7, -8
 284              		.cfi_offset 14, -4
 285 0002 00AF     		add	r7, sp, #0
 286              		.cfi_def_cfa_register 7
  82:.\main.c      ****     	test_01_Write(1);
 287              		.loc 1 82 0
 288 0004 0120     		movs	r0, #1
 289 0006 FFF7FEFF 		bl	test_01_Write
  83:.\main.c      **** 	Control_Reg_1_Control=0;
 290              		.loc 1 83 0
 291 000a 224B     		ldr	r3, .L11
 292 000c 0022     		movs	r2, #0
 293 000e 1A70     		strb	r2, [r3]
  84:.\main.c      **** 	V_Sample_SUM_1=V_Sample_SUM_1+V_Sample[0];
 294              		.loc 1 84 0
 295 0010 214B     		ldr	r3, .L11+4
 296 0012 1B88     		ldrh	r3, [r3]
 297 0014 1AB2     		sxth	r2, r3
 298 0016 214B     		ldr	r3, .L11+8
 299 0018 1B68     		ldr	r3, [r3]
 300 001a 1344     		add	r3, r3, r2
 301 001c 1F4A     		ldr	r2, .L11+8
 302 001e 1360     		str	r3, [r2]
  85:.\main.c      **** 	V_Sample_SUM_2=V_Sample_SUM_2+(((float)V_Sample[0])*((float)V_Sample[0]));
 303              		.loc 1 85 0
 304 0020 1D4B     		ldr	r3, .L11+4
 305 0022 1B88     		ldrh	r3, [r3]
 306 0024 1BB2     		sxth	r3, r3
 307 0026 1846     		mov	r0, r3
 308 0028 FFF7FEFF 		bl	__aeabi_i2f
 309 002c 0446     		mov	r4, r0
 310 002e 1A4B     		ldr	r3, .L11+4
 311 0030 1B88     		ldrh	r3, [r3]
 312 0032 1BB2     		sxth	r3, r3
 313 0034 1846     		mov	r0, r3
 314 0036 FFF7FEFF 		bl	__aeabi_i2f
ARM GAS  C:\Users\JAKOBW~1\AppData\Local\Temp\ccAY4Is0.s 			page 8


 315 003a 0346     		mov	r3, r0
 316 003c 2046     		mov	r0, r4
 317 003e 1946     		mov	r1, r3
 318 0040 FFF7FEFF 		bl	__aeabi_fmul
 319 0044 0346     		mov	r3, r0
 320 0046 1A46     		mov	r2, r3
 321 0048 154B     		ldr	r3, .L11+12
 322 004a 1B68     		ldr	r3, [r3]	@ float
 323 004c 1046     		mov	r0, r2
 324 004e 1946     		mov	r1, r3
 325 0050 FFF7FEFF 		bl	__aeabi_fadd
 326 0054 0346     		mov	r3, r0
 327 0056 1A46     		mov	r2, r3
 328 0058 114B     		ldr	r3, .L11+12
 329 005a 1A60     		str	r2, [r3]	@ float
  86:.\main.c      **** 	if(V_Sample[0]<V_Sample_MIN)V_Sample_MIN=V_Sample[0];
 330              		.loc 1 86 0
 331 005c 0E4B     		ldr	r3, .L11+4
 332 005e 1A88     		ldrh	r2, [r3]
 333 0060 104B     		ldr	r3, .L11+16
 334 0062 1B88     		ldrh	r3, [r3]
 335 0064 12B2     		sxth	r2, r2
 336 0066 1BB2     		sxth	r3, r3
 337 0068 9A42     		cmp	r2, r3
 338 006a 03DA     		bge	.L9
 339              		.loc 1 86 0 is_stmt 0 discriminator 1
 340 006c 0A4B     		ldr	r3, .L11+4
 341 006e 1A88     		ldrh	r2, [r3]
 342 0070 0C4B     		ldr	r3, .L11+16
 343 0072 1A80     		strh	r2, [r3]	@ movhi
 344              	.L9:
  87:.\main.c      **** 	if(V_Sample[0]>V_Sample_MAX)V_Sample_MAX=V_Sample[0];
 345              		.loc 1 87 0 is_stmt 1
 346 0074 084B     		ldr	r3, .L11+4
 347 0076 1A88     		ldrh	r2, [r3]
 348 0078 0B4B     		ldr	r3, .L11+20
 349 007a 1B88     		ldrh	r3, [r3]
 350 007c 12B2     		sxth	r2, r2
 351 007e 1BB2     		sxth	r3, r3
 352 0080 9A42     		cmp	r2, r3
 353 0082 03DD     		ble	.L10
 354              		.loc 1 87 0 is_stmt 0 discriminator 1
 355 0084 044B     		ldr	r3, .L11+4
 356 0086 1A88     		ldrh	r2, [r3]
 357 0088 074B     		ldr	r3, .L11+20
 358 008a 1A80     		strh	r2, [r3]	@ movhi
 359              	.L10:
  88:.\main.c      **** 	test_01_Write(0);
 360              		.loc 1 88 0 is_stmt 1
 361 008c 0020     		movs	r0, #0
 362 008e FFF7FEFF 		bl	test_01_Write
  89:.\main.c      **** }
 363              		.loc 1 89 0
 364 0092 98BD     		pop	{r3, r4, r7, pc}
 365              	.L12:
 366              		.align	2
 367              	.L11:
ARM GAS  C:\Users\JAKOBW~1\AppData\Local\Temp\ccAY4Is0.s 			page 9


 368 0094 7B640040 		.word	1073767547
 369 0098 00000000 		.word	V_Sample
 370 009c 00000000 		.word	V_Sample_SUM_1
 371 00a0 00000000 		.word	V_Sample_SUM_2
 372 00a4 00000000 		.word	V_Sample_MIN
 373 00a8 00000000 		.word	V_Sample_MAX
 374              		.cfi_endproc
 375              	.LFE66:
 376              		.size	Sample_int, .-Sample_int
 377              		.section	.text.Init,"ax",%progbits
 378              		.align	2
 379              		.global	Init
 380              		.thumb
 381              		.thumb_func
 382              		.type	Init, %function
 383              	Init:
 384              	.LFB67:
  90:.\main.c      **** 
  91:.\main.c      **** void Init()
  92:.\main.c      **** {
 385              		.loc 1 92 0
 386              		.cfi_startproc
 387              		@ args = 0, pretend = 0, frame = 0
 388              		@ frame_needed = 1, uses_anonymous_args = 0
 389 0000 80B5     		push	{r7, lr}
 390              		.cfi_def_cfa_offset 8
 391              		.cfi_offset 7, -8
 392              		.cfi_offset 14, -4
 393 0002 00AF     		add	r7, sp, #0
 394              		.cfi_def_cfa_register 7
  93:.\main.c      **** 	ADC_DelSig_1_Start();
 395              		.loc 1 93 0
 396 0004 FFF7FEFF 		bl	ADC_DelSig_1_Start
  94:.\main.c      **** 	ADC_DelSig_1_SetCoherency(ADC_DelSig_1_COHER_MID);
 397              		.loc 1 94 0
 398 0008 0220     		movs	r0, #2
 399 000a FFF7FEFF 		bl	ADC_DelSig_1_SetCoherency
  95:.\main.c      **** 	ADC_DelSig_1_StartConvert();
 400              		.loc 1 95 0
 401 000e FFF7FEFF 		bl	ADC_DelSig_1_StartConvert
  96:.\main.c      **** 	DMA_1_Config();
 402              		.loc 1 96 0
 403 0012 FFF7FEFF 		bl	DMA_1_Config
  97:.\main.c      **** 	Filter_1_Start();
 404              		.loc 1 97 0
 405 0016 FFF7FEFF 		bl	Filter_1_Start
  98:.\main.c      **** 	Filter_1_SetCoherency(Filter_1_CHANNEL_A, Filter_1_KEY_HIGH);
 406              		.loc 1 98 0
 407 001a 0020     		movs	r0, #0
 408 001c 0221     		movs	r1, #2
 409 001e FFF7FEFF 		bl	Filter_1_SetCoherency
  99:.\main.c      **** 	DMA_2_Config();
 410              		.loc 1 99 0
 411 0022 FFF7FEFF 		bl	DMA_2_Config
 100:.\main.c      **** 	isr_1_StartEx(DAC_int);
 412              		.loc 1 100 0
 413 0026 0648     		ldr	r0, .L14
ARM GAS  C:\Users\JAKOBW~1\AppData\Local\Temp\ccAY4Is0.s 			page 10


 414 0028 FFF7FEFF 		bl	isr_1_StartEx
 101:.\main.c      **** 	VDAC8_1_Start();
 415              		.loc 1 101 0
 416 002c FFF7FEFF 		bl	VDAC8_1_Start
 102:.\main.c      **** 	isr_2_StartEx(Sample_int);
 417              		.loc 1 102 0
 418 0030 0448     		ldr	r0, .L14+4
 419 0032 FFF7FEFF 		bl	isr_2_StartEx
 103:.\main.c      **** 	Control_Reg_1_Control=0;
 420              		.loc 1 103 0
 421 0036 044B     		ldr	r3, .L14+8
 422 0038 0022     		movs	r2, #0
 423 003a 1A70     		strb	r2, [r3]
 104:.\main.c      **** }
 424              		.loc 1 104 0
 425 003c 80BD     		pop	{r7, pc}
 426              	.L15:
 427 003e 00BF     		.align	2
 428              	.L14:
 429 0040 00000000 		.word	DAC_int
 430 0044 00000000 		.word	Sample_int
 431 0048 7B640040 		.word	1073767547
 432              		.cfi_endproc
 433              	.LFE67:
 434              		.size	Init, .-Init
 435              		.global	__aeabi_fcmplt
 436              		.global	__aeabi_fdiv
 437              		.global	__aeabi_fsub
 438              		.global	__aeabi_f2d
 439              		.global	__aeabi_d2iz
 440              		.section	.text.main,"ax",%progbits
 441              		.align	2
 442              		.global	main
 443              		.thumb
 444              		.thumb_func
 445              		.type	main, %function
 446              	main:
 447              	.LFB68:
 105:.\main.c      **** 
 106:.\main.c      **** int main()
 107:.\main.c      **** {
 448              		.loc 1 107 0
 449              		.cfi_startproc
 450              		@ args = 0, pretend = 0, frame = 0
 451              		@ frame_needed = 1, uses_anonymous_args = 0
 452 0000 B0B5     		push	{r4, r5, r7, lr}
 453              		.cfi_def_cfa_offset 16
 454              		.cfi_offset 4, -16
 455              		.cfi_offset 5, -12
 456              		.cfi_offset 7, -8
 457              		.cfi_offset 14, -4
 458 0002 00AF     		add	r7, sp, #0
 459              		.cfi_def_cfa_register 7
 108:.\main.c      ****     /* Place your initialization/startup code here (e.g. MyInst_Start()) */
 109:.\main.c      **** 	Init();
 460              		.loc 1 109 0
 461 0004 FFF7FEFF 		bl	Init
ARM GAS  C:\Users\JAKOBW~1\AppData\Local\Temp\ccAY4Is0.s 			page 11


 110:.\main.c      **** 
 111:.\main.c      **** 	CyGlobalIntEnable; /* Uncomment this line to enable global interrupts. */
 462              		.loc 1 111 0
 463              	@ 111 ".\main.c" 1
 464 0008 62B6     		CPSIE   i
 465              	@ 0 "" 2
 466              		.thumb
 467              	.L23:
 112:.\main.c      **** 
 113:.\main.c      ****     for(;;)
 114:.\main.c      ****     {
 115:.\main.c      ****         /* Place your application code here. */
 116:.\main.c      **** 
 117:.\main.c      **** 		V_Sample_SUM_1=0;
 468              		.loc 1 117 0
 469 000a 514B     		ldr	r3, .L26
 470 000c 0022     		movs	r2, #0
 471 000e 1A60     		str	r2, [r3]
 118:.\main.c      **** 		V_Sample_SUM_2=0;
 472              		.loc 1 118 0
 473 0010 504B     		ldr	r3, .L26+4
 474 0012 4FF00002 		mov	r2, #0
 475 0016 1A60     		str	r2, [r3]	@ float
 119:.\main.c      **** 		V_Sample_MIN= ((1<<15)-1) ; // int: ((1<<15)-1) uint: 0-1 
 476              		.loc 1 119 0
 477 0018 4F4B     		ldr	r3, .L26+8
 478 001a 47F6FF72 		movw	r2, #32767
 479 001e 1A80     		strh	r2, [r3]	@ movhi
 120:.\main.c      **** 		V_Sample_MAX=1 << 15;       // int: 1<<15       uint: 0
 480              		.loc 1 120 0
 481 0020 4E4B     		ldr	r3, .L26+12
 482 0022 4FF40042 		mov	r2, #32768
 483 0026 1A80     		strh	r2, [r3]	@ movhi
 121:.\main.c      **** 		for(i=0;i<(1 << (N_Sample));i++)
 484              		.loc 1 121 0
 485 0028 4D4B     		ldr	r3, .L26+16
 486 002a 0022     		movs	r2, #0
 487 002c 1A80     		strh	r2, [r3]	@ movhi
 488 002e 0EE0     		b	.L17
 489              	.L19:
 122:.\main.c      **** 		{
 123:.\main.c      **** 			Control_Reg_1_Control=1;
 490              		.loc 1 123 0
 491 0030 4C4B     		ldr	r3, .L26+20
 492 0032 0122     		movs	r2, #1
 493 0034 1A70     		strb	r2, [r3]
 124:.\main.c      **** 			while(Control_Reg_1_Control); 
 494              		.loc 1 124 0
 495 0036 00BF     		nop
 496              	.L18:
 497              		.loc 1 124 0 is_stmt 0 discriminator 1
 498 0038 4A4B     		ldr	r3, .L26+20
 499 003a 1B78     		ldrb	r3, [r3]
 500 003c DBB2     		uxtb	r3, r3
 501 003e 002B     		cmp	r3, #0
 502 0040 FAD1     		bne	.L18
 121:.\main.c      **** 		for(i=0;i<(1 << (N_Sample));i++)
ARM GAS  C:\Users\JAKOBW~1\AppData\Local\Temp\ccAY4Is0.s 			page 12


 503              		.loc 1 121 0 is_stmt 1 discriminator 2
 504 0042 474B     		ldr	r3, .L26+16
 505 0044 1B88     		ldrh	r3, [r3]
 506 0046 0133     		adds	r3, r3, #1
 507 0048 9AB2     		uxth	r2, r3
 508 004a 454B     		ldr	r3, .L26+16
 509 004c 1A80     		strh	r2, [r3]	@ movhi
 510              	.L17:
 121:.\main.c      **** 		for(i=0;i<(1 << (N_Sample));i++)
 511              		.loc 1 121 0 is_stmt 0 discriminator 1
 512 004e 444B     		ldr	r3, .L26+16
 513 0050 1B88     		ldrh	r3, [r3]
 514 0052 B3F5806F 		cmp	r3, #1024
 515 0056 EBD3     		bcc	.L19
 125:.\main.c      **** 		}
 126:.\main.c      **** 		V_Sample_AVG=V_Sample_SUM_1 >> (N_Sample);
 516              		.loc 1 126 0 is_stmt 1
 517 0058 3D4B     		ldr	r3, .L26
 518 005a 1B68     		ldr	r3, [r3]
 519 005c 9B12     		asrs	r3, r3, #10
 520 005e 9AB2     		uxth	r2, r3
 521 0060 414B     		ldr	r3, .L26+24
 522 0062 1A80     		strh	r2, [r3]	@ movhi
 127:.\main.c      **** 		if(V_Sample_SUM_2>((float)V_Sample_AVG)*((float)V_Sample_AVG))
 523              		.loc 1 127 0
 524 0064 404B     		ldr	r3, .L26+24
 525 0066 1B88     		ldrh	r3, [r3]
 526 0068 1BB2     		sxth	r3, r3
 527 006a 1846     		mov	r0, r3
 528 006c FFF7FEFF 		bl	__aeabi_i2f
 529 0070 0446     		mov	r4, r0
 530 0072 3D4B     		ldr	r3, .L26+24
 531 0074 1B88     		ldrh	r3, [r3]
 532 0076 1BB2     		sxth	r3, r3
 533 0078 1846     		mov	r0, r3
 534 007a FFF7FEFF 		bl	__aeabi_i2f
 535 007e 0346     		mov	r3, r0
 536 0080 2046     		mov	r0, r4
 537 0082 1946     		mov	r1, r3
 538 0084 FFF7FEFF 		bl	__aeabi_fmul
 539 0088 0346     		mov	r3, r0
 540 008a 1A46     		mov	r2, r3
 541 008c 314B     		ldr	r3, .L26+4
 542 008e 1B68     		ldr	r3, [r3]	@ float
 543 0090 1046     		mov	r0, r2
 544 0092 1946     		mov	r1, r3
 545 0094 FFF7FEFF 		bl	__aeabi_fcmplt
 546 0098 0346     		mov	r3, r0
 547 009a 002B     		cmp	r3, #0
 548 009c 24D0     		beq	.L25
 128:.\main.c      **** 		{
 129:.\main.c      **** 			V_Sample_VAR=(V_Sample_SUM_2/( 1 << N_Sample))-((float)V_Sample_AVG)*((float)V_Sample_AVG);
 549              		.loc 1 129 0
 550 009e 2D4B     		ldr	r3, .L26+4
 551 00a0 1B68     		ldr	r3, [r3]	@ float
 552 00a2 1846     		mov	r0, r3
 553 00a4 4FF08941 		mov	r1, #1149239296
ARM GAS  C:\Users\JAKOBW~1\AppData\Local\Temp\ccAY4Is0.s 			page 13


 554 00a8 FFF7FEFF 		bl	__aeabi_fdiv
 555 00ac 0346     		mov	r3, r0
 556 00ae 1C46     		mov	r4, r3
 557 00b0 2D4B     		ldr	r3, .L26+24
 558 00b2 1B88     		ldrh	r3, [r3]
 559 00b4 1BB2     		sxth	r3, r3
 560 00b6 1846     		mov	r0, r3
 561 00b8 FFF7FEFF 		bl	__aeabi_i2f
 562 00bc 0546     		mov	r5, r0
 563 00be 2A4B     		ldr	r3, .L26+24
 564 00c0 1B88     		ldrh	r3, [r3]
 565 00c2 1BB2     		sxth	r3, r3
 566 00c4 1846     		mov	r0, r3
 567 00c6 FFF7FEFF 		bl	__aeabi_i2f
 568 00ca 0346     		mov	r3, r0
 569 00cc 2846     		mov	r0, r5
 570 00ce 1946     		mov	r1, r3
 571 00d0 FFF7FEFF 		bl	__aeabi_fmul
 572 00d4 0346     		mov	r3, r0
 573 00d6 2046     		mov	r0, r4
 574 00d8 1946     		mov	r1, r3
 575 00da FFF7FEFF 		bl	__aeabi_fsub
 576 00de 0346     		mov	r3, r0
 577 00e0 1A46     		mov	r2, r3
 578 00e2 224B     		ldr	r3, .L26+28
 579 00e4 1A60     		str	r2, [r3]	@ float
 580 00e6 03E0     		b	.L22
 581              	.L25:
 130:.\main.c      **** 		}
 131:.\main.c      **** 		else
 132:.\main.c      **** 		{
 133:.\main.c      **** 			V_Sample_VAR=0;
 582              		.loc 1 133 0
 583 00e8 204B     		ldr	r3, .L26+28
 584 00ea 4FF00002 		mov	r2, #0
 585 00ee 1A60     		str	r2, [r3]	@ float
 586              	.L22:
 134:.\main.c      **** 		}
 135:.\main.c      **** 		V_Sample_AVG_float=ADC_DelSig_1_CountsTo_Volts(V_Sample_AVG);
 587              		.loc 1 135 0
 588 00f0 1D4B     		ldr	r3, .L26+24
 589 00f2 1B88     		ldrh	r3, [r3]
 590 00f4 1BB2     		sxth	r3, r3
 591 00f6 1846     		mov	r0, r3
 592 00f8 FFF7FEFF 		bl	ADC_DelSig_1_CountsTo_Volts
 593 00fc 0246     		mov	r2, r0
 594 00fe 1C4B     		ldr	r3, .L26+32
 595 0100 1A60     		str	r2, [r3]	@ float
 136:.\main.c      **** 		V_Sample_PP_float=ADC_DelSig_1_CountsTo_Volts((((int32)V_Sample_MAX)-((int32)V_Sample_MIN)));
 596              		.loc 1 136 0
 597 0102 164B     		ldr	r3, .L26+12
 598 0104 1B88     		ldrh	r3, [r3]
 599 0106 1AB2     		sxth	r2, r3
 600 0108 134B     		ldr	r3, .L26+8
 601 010a 1B88     		ldrh	r3, [r3]
 602 010c 1BB2     		sxth	r3, r3
 603 010e D31A     		subs	r3, r2, r3
ARM GAS  C:\Users\JAKOBW~1\AppData\Local\Temp\ccAY4Is0.s 			page 14


 604 0110 1846     		mov	r0, r3
 605 0112 FFF7FEFF 		bl	ADC_DelSig_1_CountsTo_Volts
 606 0116 0246     		mov	r2, r0
 607 0118 164B     		ldr	r3, .L26+36
 608 011a 1A60     		str	r2, [r3]	@ float
 137:.\main.c      **** 		V_Sample_RMS_float=ADC_DelSig_1_CountsTo_Volts((int32)sqrt(V_Sample_VAR));       
 609              		.loc 1 137 0
 610 011c 134B     		ldr	r3, .L26+28
 611 011e 1B68     		ldr	r3, [r3]	@ float
 612 0120 1846     		mov	r0, r3
 613 0122 FFF7FEFF 		bl	__aeabi_f2d
 614 0126 0246     		mov	r2, r0
 615 0128 0B46     		mov	r3, r1
 616 012a 1046     		mov	r0, r2
 617 012c 1946     		mov	r1, r3
 618 012e FFF7FEFF 		bl	sqrt
 619 0132 0246     		mov	r2, r0
 620 0134 0B46     		mov	r3, r1
 621 0136 1046     		mov	r0, r2
 622 0138 1946     		mov	r1, r3
 623 013a FFF7FEFF 		bl	__aeabi_d2iz
 624 013e 0346     		mov	r3, r0
 625 0140 1846     		mov	r0, r3
 626 0142 FFF7FEFF 		bl	ADC_DelSig_1_CountsTo_Volts
 627 0146 0246     		mov	r2, r0
 628 0148 0B4B     		ldr	r3, .L26+40
 629 014a 1A60     		str	r2, [r3]	@ float
 138:.\main.c      ****     }
 630              		.loc 1 138 0
 631 014c 5DE7     		b	.L23
 632              	.L27:
 633 014e 00BF     		.align	2
 634              	.L26:
 635 0150 00000000 		.word	V_Sample_SUM_1
 636 0154 00000000 		.word	V_Sample_SUM_2
 637 0158 00000000 		.word	V_Sample_MIN
 638 015c 00000000 		.word	V_Sample_MAX
 639 0160 00000000 		.word	i
 640 0164 7B640040 		.word	1073767547
 641 0168 00000000 		.word	V_Sample_AVG
 642 016c 00000000 		.word	V_Sample_VAR
 643 0170 00000000 		.word	V_Sample_AVG_float
 644 0174 00000000 		.word	V_Sample_PP_float
 645 0178 00000000 		.word	V_Sample_RMS_float
 646              		.cfi_endproc
 647              	.LFE68:
 648              		.size	main, .-main
 649              		.text
 650              	.Letext0:
 651              		.file 2 "c:\\program files (x86)\\cypress\\psoc creator\\3.3\\psoc creator\\import\\gnu\\arm\\4.9.
 652              		.file 3 "c:\\program files (x86)\\cypress\\psoc creator\\3.3\\psoc creator\\import\\gnu\\arm\\4.9.
 653              		.file 4 "Generated_Source\\PSoC5/cytypes.h"
 654              		.file 5 "Generated_Source\\PSoC5/core_cm3.h"